; Function Attrs: mustprogress uwtable
define dso_local void @_ZN11EnvmapImageC2Ev(ptr noundef nonnull writeonly align 8 captures(none) dereferenceable(48) initializes((0, 20), (24, 48)) %0) unnamed_addr #3 align 2 personality ptr @__gxx_personality_v0 {
_ZN11EnvmapImage5clearEv.exit:
  %1 = getelementptr inbounds nuw i8, ptr %0, i64 24
  tail call void @llvm.memset.p0.i64(ptr noundef nonnull align 8 dereferenceable(20) %0, i8 0, i64 20, i1 false)
  store i64 1, ptr %1, align 8, !tbaa !4
  %2 = getelementptr inbounds nuw i8, ptr %0, i64 32
  store i64 1, ptr %2, align 8, !tbaa !11
  %3 = tail call noalias noundef nonnull dereferenceable(8) ptr @_Znam(i64 noundef 8) #17
  %4 = getelementptr inbounds nuw i8, ptr %0, i64 40
  store ptr %3, ptr %4, align 8, !tbaa !12
  store i64 0, ptr %3, align 2
  ret void
}